target datalayout = "e-m:e-p270:32:32-p271:32:32-p272:64:64-i64:64-i128:128-f80:128-n8:16:32:64-S128"
target triple = "x86_64-pc-linux-gnu"

%struct.ossl_cmp_msg_st = type { ptr, ptr, ptr, ptr, ptr, ptr }
%struct.ossl_cmp_pkibody_st = type { i32, %union.anon }
%union.anon = type { ptr }
%struct.ossl_cmp_ctx_st = type { ptr, ptr, ptr, i32, ptr, ptr, ptr, ptr, ptr, i32, ptr, ptr, i32, i32, i32, i32, i64, ptr, ptr, i32, i32, ptr, ptr, ptr, ptr, ptr, i32, i32, i32, ptr, ptr, ptr, ptr, ptr, i64, ptr, i32, i32, ptr, ptr, ptr, ptr, ptr, ptr, ptr, ptr, i32, i32, ptr, ptr, i32, ptr, ptr, i32, ptr, ptr, i32, i32, ptr, ptr, i32, i32, ptr, ptr, i32, ptr, i32, ptr, i32, ptr, ptr, ptr, ptr, ptr, ptr }
%struct.ossl_cmp_certstatus_st = type { ptr, ptr, ptr, ptr }

@.str = private unnamed_addr constant [32 x i8] c"../openssl/crypto/cmp/cmp_msg.c\00", align 1
@__func__.ossl_cmp_certConf_new = private unnamed_addr constant [22 x i8] c"ossl_cmp_certConf_new\00", align 1

; Function Attrs: nounwind uwtable
define void @OSSL_CMP_MSG_free(ptr noundef %0) #0 {
  %2 = alloca ptr, align 8
  store ptr %0, ptr %2, align 8, !tbaa !10
  %3 = load ptr, ptr %2, align 8, !tbaa !10
  %4 = call ptr @OSSL_CMP_MSG_it()
  call void @ASN1_item_free(ptr noundef %3, ptr noundef %4)
  ret void
}

; Function Attrs: nounwind uwtable
define i32 @ossl_cmp_certstatus_set0_certHash(ptr noundef %0, ptr noundef %1) #0 {
  %3 = alloca i32, align 4
  %4 = alloca ptr, align 8
  %5 = alloca ptr, align 8
  store ptr %0, ptr %4, align 8, !tbaa !146
  store ptr %1, ptr %5, align 8, !tbaa !65
  %6 = load ptr, ptr %4, align 8, !tbaa !146
  %7 = icmp ne ptr %6, null
  %8 = zext i1 %7 to i32
  %9 = icmp ne i32 %8, 0
  %10 = xor i1 %9, true
  %11 = xor i1 %10, true
  %12 = zext i1 %11 to i32
  %13 = sext i32 %12 to i64
  %14 = call i64 @llvm.expect.i64(i64 %13, i64 1)
  %15 = icmp ne i64 %14, 0
  br i1 %15, label %17, label %16

16:                                               ; preds = %2
  store i32 0, ptr %3, align 4
  br label %24

17:                                               ; preds = %2
  %18 = load ptr, ptr %4, align 8, !tbaa !146
  %19 = getelementptr inbounds nuw %struct.ossl_cmp_certstatus_st, ptr %18, i32 0, i32 0
  %20 = load ptr, ptr %19, align 8, !tbaa !148
  call void @ASN1_OCTET_STRING_free(ptr noundef %20)
  %21 = load ptr, ptr %5, align 8, !tbaa !65
  %22 = load ptr, ptr %4, align 8, !tbaa !146
  %23 = getelementptr inbounds nuw %struct.ossl_cmp_certstatus_st, ptr %22, i32 0, i32 0
  store ptr %21, ptr %23, align 8, !tbaa !148
  store i32 1, ptr %3, align 4
  br label %24

24:                                               ; preds = %17, %16
  %25 = load i32, ptr %3, align 4
  ret i32 %25
}

; Function Attrs: inlinehint nounwind uwtable
define internal ptr @ossl_check_OSSL_CMP_CERTSTATUS_type(ptr noundef %0) #4 {
  %2 = alloca ptr, align 8
  store ptr %0, ptr %2, align 8, !tbaa !146
  %3 = load ptr, ptr %2, align 8, !tbaa !146
  ret ptr %3
}

; Function Attrs: inlinehint nounwind uwtable
define internal ptr @ossl_check_OSSL_CMP_CERTSTATUS_sk_type(ptr noundef %0) #4 {
  %2 = alloca ptr, align 8
  store ptr %0, ptr %2, align 8, !tbaa !156
  %3 = load ptr, ptr %2, align 8, !tbaa !156
  ret ptr %3
}

; Function Attrs: nounwind uwtable
define ptr @ossl_cmp_certConf_new(ptr noundef %0, i32 noundef %1, i32 noundef %2, ptr noundef %3) #0 {
  %5 = alloca ptr, align 8
  %6 = alloca ptr, align 8
  %7 = alloca i32, align 4
  %8 = alloca i32, align 4
  %9 = alloca ptr, align 8
  %10 = alloca ptr, align 8
  %11 = alloca ptr, align 8
  %12 = alloca ptr, align 8
  %13 = alloca i32, align 4
  %14 = alloca ptr, align 8
  %15 = alloca ptr, align 8
  %16 = alloca i32, align 4
  store ptr %0, ptr %6, align 8, !tbaa !34
  store i32 %1, ptr %7, align 4, !tbaa !20
  store i32 %2, ptr %8, align 4, !tbaa !20
  store ptr %3, ptr %9, align 8, !tbaa !8
  call void @llvm.lifetime.start.p0(i64 8, ptr %10) #6
  store ptr null, ptr %10, align 8, !tbaa !10
  call void @llvm.lifetime.start.p0(i64 8, ptr %11) #6
  store ptr null, ptr %11, align 8, !tbaa !146
  call void @llvm.lifetime.start.p0(i64 8, ptr %12) #6
  call void @llvm.lifetime.start.p0(i64 4, ptr %13) #6
  call void @llvm.lifetime.start.p0(i64 8, ptr %14) #6
  store ptr null, ptr %14, align 8, !tbaa !65
  call void @llvm.lifetime.start.p0(i64 8, ptr %15) #6
  %17 = load ptr, ptr %6, align 8, !tbaa !34
  %18 = icmp ne ptr %17, null
  br i1 %18, label %19, label %32

19:                                               ; preds = %4
  %20 = load ptr, ptr %6, align 8, !tbaa !34
  %21 = getelementptr inbounds nuw %struct.ossl_cmp_ctx_st, ptr %20, i32 0, i32 69
  %22 = load ptr, ptr %21, align 8, !tbaa !151
  %23 = icmp ne ptr %22, null
  br i1 %23, label %24, label %32

24:                                               ; preds = %19
  %25 = load i32, ptr %7, align 4, !tbaa !20
  %26 = icmp eq i32 %25, 0
  br i1 %26, label %30, label %27

27:                                               ; preds = %24
  %28 = load i32, ptr %7, align 4, !tbaa !20
  %29 = icmp eq i32 %28, -1
  br label %30

30:                                               ; preds = %27, %24
  %31 = phi i1 [ true, %24 ], [ %29, %27 ]
  br label %32

32:                                               ; preds = %30, %19, %4
  %33 = phi i1 [ false, %19 ], [ false, %4 ], [ %31, %30 ]
  %34 = zext i1 %33 to i32
  %35 = icmp ne i32 %34, 0
  %36 = xor i1 %35, true
  %37 = xor i1 %36, true
  %38 = zext i1 %37 to i32
  %39 = sext i32 %38 to i64
  %40 = call i64 @llvm.expect.i64(i64 %39, i64 1)
  %41 = icmp ne i64 %40, 0
  br i1 %41, label %43, label %42

42:                                               ; preds = %32
  store ptr null, ptr %5, align 8
  store i32 1, ptr %16, align 4
  br label %144

43:                                               ; preds = %32
  %44 = load i32, ptr %8, align 4, !tbaa !20
  %45 = icmp ugt i32 %44, 134217727
  br i1 %45, label %46, label %47

46:                                               ; preds = %43
  call void @ERR_new()
  call void @ERR_set_debug(ptr noundef @.str, i32 noundef 868, ptr noundef @__func__.ossl_cmp_certConf_new)
  call void (i32, i32, ptr, ...) @ERR_set_error(i32 noundef 58, i32 noundef 129, ptr noundef null)
  store ptr null, ptr %5, align 8
  store i32 1, ptr %16, align 4
  br label %144

47:                                               ; preds = %43
  %48 = load ptr, ptr %6, align 8, !tbaa !34
  %49 = call ptr @ossl_cmp_msg_create(ptr noundef %48, i32 noundef 24)
  store ptr %49, ptr %10, align 8, !tbaa !10
  %50 = icmp eq ptr %49, null
  br i1 %50, label %51, label %52

51:                                               ; preds = %47
  br label %141

52:                                               ; preds = %47
  %53 = call ptr @OSSL_CMP_CERTSTATUS_new()
  store ptr %53, ptr %11, align 8, !tbaa !146
  %54 = icmp eq ptr %53, null
  br i1 %54, label %55, label %56

55:                                               ; preds = %52
  br label %141

56:                                               ; preds = %52
  %57 = load ptr, ptr %10, align 8, !tbaa !10
  %58 = getelementptr inbounds nuw %struct.ossl_cmp_msg_st, ptr %57, i32 0, i32 1
  %59 = load ptr, ptr %58, align 8, !tbaa !22
  %60 = getelementptr inbounds nuw %struct.ossl_cmp_pkibody_st, ptr %59, i32 0, i32 1
  %61 = load ptr, ptr %60, align 8, !tbaa !25
  %62 = call ptr @ossl_check_OSSL_CMP_CERTSTATUS_sk_type(ptr noundef %61)
  %63 = load ptr, ptr %11, align 8, !tbaa !146
  %64 = call ptr @ossl_check_OSSL_CMP_CERTSTATUS_type(ptr noundef %63)
  %65 = call i32 @OPENSSL_sk_push(ptr noundef %62, ptr noundef %64)
  %66 = icmp slt i32 %65, 1
  br i1 %66, label %67, label %69

67:                                               ; preds = %56
  %68 = load ptr, ptr %11, align 8, !tbaa !146
  call void @OSSL_CMP_CERTSTATUS_free(ptr noundef %68)
  br label %141

69:                                               ; preds = %56
  %70 = load ptr, ptr %11, align 8, !tbaa !146
  %71 = getelementptr inbounds nuw %struct.ossl_cmp_certstatus_st, ptr %70, i32 0, i32 1
  %72 = load ptr, ptr %71, align 8, !tbaa !152
  %73 = load i32, ptr %7, align 4, !tbaa !20
  %74 = sext i32 %73 to i64
  %75 = call i32 @ASN1_INTEGER_set(ptr noundef %72, i64 noundef %74)
  %76 = icmp ne i32 %75, 0
  br i1 %76, label %78, label %77

77:                                               ; preds = %69
  br label %141

78:                                               ; preds = %69
  %79 = load ptr, ptr %11, align 8, !tbaa !146
  %80 = getelementptr inbounds nuw %struct.ossl_cmp_certstatus_st, ptr %79, i32 0, i32 3
  store ptr null, ptr %80, align 8, !tbaa !153
  %81 = load ptr, ptr %6, align 8, !tbaa !34
  %82 = getelementptr inbounds nuw %struct.ossl_cmp_ctx_st, ptr %81, i32 0, i32 69
  %83 = load ptr, ptr %82, align 8, !tbaa !151
  %84 = call ptr @X509_digest_sig(ptr noundef %83, ptr noundef %12, ptr noundef %13)
  store ptr %84, ptr %14, align 8, !tbaa !65
  %85 = icmp eq ptr %84, null
  br i1 %85, label %86, label %87

86:                                               ; preds = %78
  br label %141

87:                                               ; preds = %78
  %88 = load i32, ptr %13, align 4, !tbaa !20
  %89 = icmp ne i32 %88, 0
  br i1 %89, label %90, label %108

90:                                               ; preds = %87
  %91 = load ptr, ptr %10, align 8, !tbaa !10
  %92 = getelementptr inbounds nuw %struct.ossl_cmp_msg_st, ptr %91, i32 0, i32 0
  %93 = load ptr, ptr %92, align 8, !tbaa !19
  %94 = call i32 @ossl_cmp_hdr_set_pvno(ptr noundef %93, i32 noundef 3)
  %95 = icmp ne i32 %94, 0
  br i1 %95, label %97, label %96

96:                                               ; preds = %90
  br label %141

97:                                               ; preds = %90
  %98 = call ptr @X509_ALGOR_new()
  %99 = load ptr, ptr %11, align 8, !tbaa !146
  %100 = getelementptr inbounds nuw %struct.ossl_cmp_certstatus_st, ptr %99, i32 0, i32 3
  store ptr %98, ptr %100, align 8, !tbaa !153
  %101 = icmp eq ptr %98, null
  br i1 %101, label %102, label %103

102:                                              ; preds = %97
  br label %141

103:                                              ; preds = %97
  %104 = load ptr, ptr %11, align 8, !tbaa !146
  %105 = getelementptr inbounds nuw %struct.ossl_cmp_certstatus_st, ptr %104, i32 0, i32 3
  %106 = load ptr, ptr %105, align 8, !tbaa !153
  %107 = load ptr, ptr %12, align 8, !tbaa !154
  call void @X509_ALGOR_set_md(ptr noundef %106, ptr noundef %107)
  br label %108

108:                                              ; preds = %103, %87
  %109 = load ptr, ptr %12, align 8, !tbaa !154
  call void @EVP_MD_free(ptr noundef %109)
  %110 = load ptr, ptr %11, align 8, !tbaa !146
  %111 = load ptr, ptr %14, align 8, !tbaa !65
  %112 = call i32 @ossl_cmp_certstatus_set0_certHash(ptr noundef %110, ptr noundef %111)
  %113 = icmp ne i32 %112, 0
  br i1 %113, label %115, label %114

114:                                              ; preds = %108
  br label %141

115:                                              ; preds = %108
  store ptr null, ptr %14, align 8, !tbaa !65
  %116 = load i32, ptr %8, align 4, !tbaa !20
  %117 = icmp ne i32 %116, 0
  br i1 %117, label %118, label %122

118:                                              ; preds = %115
  %119 = load i32, ptr %8, align 4, !tbaa !20
  %120 = load ptr, ptr %9, align 8, !tbaa !8
  %121 = call ptr @OSSL_CMP_STATUSINFO_new(i32 noundef 2, i32 noundef %119, ptr noundef %120)
  br label %125

122:                                              ; preds = %115
  %123 = load ptr, ptr %9, align 8, !tbaa !8
  %124 = call ptr @OSSL_CMP_STATUSINFO_new(i32 noundef 0, i32 noundef 0, ptr noundef %123)
  br label %125

125:                                              ; preds = %122, %118
  %126 = phi ptr [ %121, %118 ], [ %124, %122 ]
  store ptr %126, ptr %15, align 8, !tbaa !82
  %127 = load ptr, ptr %15, align 8, !tbaa !82
  %128 = icmp eq ptr %127, null
  br i1 %128, label %129, label %130

129:                                              ; preds = %125
  br label %141

130:                                              ; preds = %125
  %131 = load ptr, ptr %15, align 8, !tbaa !82
  %132 = load ptr, ptr %11, align 8, !tbaa !146
  %133 = getelementptr inbounds nuw %struct.ossl_cmp_certstatus_st, ptr %132, i32 0, i32 2
  store ptr %131, ptr %133, align 8, !tbaa !155
  %134 = load ptr, ptr %6, align 8, !tbaa !34
  %135 = load ptr, ptr %10, align 8, !tbaa !10
  %136 = call i32 @ossl_cmp_msg_protect(ptr noundef %134, ptr noundef %135)
  %137 = icmp ne i32 %136, 0
  br i1 %137, label %139, label %138

138:                                              ; preds = %130
  br label %141

139:                                              ; preds = %130
  %140 = load ptr, ptr %10, align 8, !tbaa !10
  store ptr %140, ptr %5, align 8
  store i32 1, ptr %16, align 4
  br label %144

141:                                              ; preds = %138, %129, %114, %102, %96, %86, %77, %67, %55, %51
  call void @ERR_new()
  call void @ERR_set_debug(ptr noundef @.str, i32 noundef 927, ptr noundef @__func__.ossl_cmp_certConf_new)
  call void (i32, i32, ptr, ...) @ERR_set_error(i32 noundef 58, i32 noundef 116, ptr noundef null)
  %142 = load ptr, ptr %10, align 8, !tbaa !10
  call void @OSSL_CMP_MSG_free(ptr noundef %142)
  %143 = load ptr, ptr %14, align 8, !tbaa !65
  call void @ASN1_OCTET_STRING_free(ptr noundef %143)
  store ptr null, ptr %5, align 8
  store i32 1, ptr %16, align 4
  br label %144

144:                                              ; preds = %141, %139, %46, %42
  call void @llvm.lifetime.end.p0(i64 8, ptr %15) #6
  call void @llvm.lifetime.end.p0(i64 8, ptr %14) #6
  call void @llvm.lifetime.end.p0(i64 4, ptr %13) #6
  call void @llvm.lifetime.end.p0(i64 8, ptr %12) #6
  call void @llvm.lifetime.end.p0(i64 8, ptr %11) #6
  call void @llvm.lifetime.end.p0(i64 8, ptr %10) #6
  %145 = load ptr, ptr %5, align 8
  ret ptr %145
}