; Function Attrs: nounwind uwtable
define ptr @ossl_cmp_certConf_new(ptr noundef %0, i32 noundef %1, i32 noundef %2, ptr noundef %3) local_unnamed_addr #0 {
  %5 = alloca ptr, align 8
  %6 = alloca i32, align 4
  call void @llvm.lifetime.start.p0(i64 8, ptr nonnull %5) #7
  call void @llvm.lifetime.start.p0(i64 4, ptr nonnull %6) #7
  %.not = icmp eq ptr %0, null
  br i1 %.not, label %.critedge, label %7

7:                                                ; preds = %4
  %8 = getelementptr inbounds nuw i8, ptr %0, i64 488
  %9 = load ptr, ptr %8, align 8, !tbaa !99
  %.not38 = icmp ne ptr %9, null
  %10 = add i32 %1, 1
  %11 = icmp ult i32 %10, 2
  %or.cond = and i1 %11, %.not38
  br i1 %or.cond, label %12, label %.critedge, !prof !100

12:                                               ; preds = %7
  %13 = icmp ugt i32 %2, 134217727
  br i1 %13, label %14, label %15

14:                                               ; preds = %12
  tail call void @ERR_new() #7
  tail call void @ERR_set_debug(ptr noundef nonnull @.str, i32 noundef 868, ptr noundef nonnull @__func__.ossl_cmp_certConf_new) #7
  tail call void (i32, i32, ptr, ...) @ERR_set_error(i32 noundef 58, i32 noundef 129, ptr noundef null) #7
  br label %.critedge

15:                                               ; preds = %12
  %16 = tail call ptr @ossl_cmp_msg_create(ptr noundef nonnull %0, i32 noundef 24)
  %17 = icmp eq ptr %16, null
  br i1 %17, label %62, label %18

18:                                               ; preds = %15
  %19 = tail call ptr @OSSL_CMP_CERTSTATUS_new() #7
  %20 = icmp eq ptr %19, null
  br i1 %20, label %62, label %21

21:                                               ; preds = %18
  %22 = getelementptr inbounds nuw i8, ptr %16, i64 8
  %23 = load ptr, ptr %22, align 8, !tbaa !17
  %24 = getelementptr inbounds nuw i8, ptr %23, i64 8
  %25 = load ptr, ptr %24, align 8, !tbaa !22
  %26 = tail call i32 @OPENSSL_sk_push(ptr noundef %25, ptr noundef nonnull %19) #7
  %27 = icmp slt i32 %26, 1
  br i1 %27, label %28, label %29

28:                                               ; preds = %21
  tail call void @OSSL_CMP_CERTSTATUS_free(ptr noundef nonnull %19) #7
  br label %62

29:                                               ; preds = %21
  %30 = getelementptr inbounds nuw i8, ptr %19, i64 8
  %31 = load ptr, ptr %30, align 8, !tbaa !101
  %32 = sext i32 %1 to i64
  %33 = tail call i32 @ASN1_INTEGER_set(ptr noundef %31, i64 noundef %32) #7
  %.not39 = icmp eq i32 %33, 0
  br i1 %.not39, label %62, label %34

34:                                               ; preds = %29
  %35 = getelementptr inbounds nuw i8, ptr %19, i64 24
  store ptr null, ptr %35, align 8, !tbaa !102
  %36 = load ptr, ptr %8, align 8, !tbaa !99
  %37 = call ptr @X509_digest_sig(ptr noundef %36, ptr noundef nonnull %5, ptr noundef nonnull %6) #7
  %38 = icmp eq ptr %37, null
  br i1 %38, label %62, label %39

39:                                               ; preds = %34
  %40 = load i32, ptr %6, align 4, !tbaa !103
  %.not40 = icmp eq i32 %40, 0
  br i1 %.not40, label %49, label %41

41:                                               ; preds = %39
  %42 = load ptr, ptr %16, align 8, !tbaa !15
  %43 = call i32 @ossl_cmp_hdr_set_pvno(ptr noundef %42, i32 noundef 3) #7
  %.not41 = icmp eq i32 %43, 0
  br i1 %.not41, label %62, label %44

44:                                               ; preds = %41
  %45 = call ptr @X509_ALGOR_new() #7
  store ptr %45, ptr %35, align 8, !tbaa !102
  %46 = icmp eq ptr %45, null
  br i1 %46, label %62, label %47

47:                                               ; preds = %44
  %48 = load ptr, ptr %5, align 8, !tbaa !104
  call void @X509_ALGOR_set_md(ptr noundef nonnull %45, ptr noundef %48) #7
  br label %49

49:                                               ; preds = %39, %47
  %50 = load ptr, ptr %5, align 8, !tbaa !104
  call void @EVP_MD_free(ptr noundef %50) #7
  %51 = load ptr, ptr %19, align 8, !tbaa !96
  call void @ASN1_OCTET_STRING_free(ptr noundef %51) #7
  store ptr %37, ptr %19, align 8, !tbaa !96
  %.not43 = icmp eq i32 %2, 0
  br i1 %.not43, label %54, label %52

52:                                               ; preds = %49
  %53 = call ptr @OSSL_CMP_STATUSINFO_new(i32 noundef 2, i32 noundef %2, ptr noundef %3) #7
  br label %56

54:                                               ; preds = %49
  %55 = call ptr @OSSL_CMP_STATUSINFO_new(i32 noundef 0, i32 noundef 0, ptr noundef %3) #7
  br label %56

56:                                               ; preds = %54, %52
  %57 = phi ptr [ %53, %52 ], [ %55, %54 ]
  %58 = icmp eq ptr %57, null
  br i1 %58, label %62, label %59

59:                                               ; preds = %56
  %60 = getelementptr inbounds nuw i8, ptr %19, i64 16
  store ptr %57, ptr %60, align 8, !tbaa !105
  %61 = call i32 @ossl_cmp_msg_protect(ptr noundef nonnull %0, ptr noundef nonnull %16) #7
  %.not44 = icmp eq i32 %61, 0
  br i1 %.not44, label %62, label %.critedge

62:                                               ; preds = %59, %56, %44, %41, %34, %29, %18, %15, %28
  %.030 = phi ptr [ null, %15 ], [ null, %18 ], [ null, %28 ], [ null, %34 ], [ %37, %44 ], [ null, %56 ], [ null, %59 ], [ %37, %41 ], [ null, %29 ]
  call void @ERR_new() #7
  call void @ERR_set_debug(ptr noundef nonnull @.str, i32 noundef 927, ptr noundef nonnull @__func__.ossl_cmp_certConf_new) #7
  call void (i32, i32, ptr, ...) @ERR_set_error(i32 noundef 58, i32 noundef 116, ptr noundef null) #7
  %63 = call ptr @OSSL_CMP_MSG_it() #7
  call void @ASN1_item_free(ptr noundef %16, ptr noundef %63) #7
  call void @ASN1_OCTET_STRING_free(ptr noundef %.030) #7
  br label %.critedge

.critedge:                                        ; preds = %7, %4, %59, %62, %14
  %.0 = phi ptr [ null, %14 ], [ null, %62 ], [ %16, %59 ], [ null, %4 ], [ null, %7 ]
  call void @llvm.lifetime.end.p0(i64 4, ptr nonnull %6) #7
  call void @llvm.lifetime.end.p0(i64 8, ptr nonnull %5) #7
  ret ptr %.0
}